	.file	"GDTManager.cpp"
	.text
.Ltext0:
	.section	.rodata.str1.1,"aMS",@progbits,1
.LC0:
	.string	"bad gdt entry...\n"
	.text
	.align 2
	.align 16
	.globl	_ZN10GDTManager9encodeGDTEv
	.type	_ZN10GDTManager9encodeGDTEv, @function
_ZN10GDTManager9encodeGDTEv:
.LFB3:
	.file 1 "kernel/arch/i386/GDTManager.cpp"
	.loc 1 37 0
	.cfi_startproc
.LVL0:
	pushl	%ebp
	.cfi_def_cfa_offset 8
	.cfi_offset 5, -8
	pushl	%edi
	.cfi_def_cfa_offset 12
	.cfi_offset 7, -12
	pushl	%esi
	.cfi_def_cfa_offset 16
	.cfi_offset 6, -16
	pushl	%ebx
	.cfi_def_cfa_offset 20
	.cfi_offset 3, -20
	subl	$12, %esp
	.cfi_def_cfa_offset 32
	.loc 1 37 0
	movl	32(%esp), %ebp
.LBB2:
	.loc 1 40 0
	movl	8(%ebp), %eax
.LBE2:
	.loc 1 38 0
	movl	0(%ebp), %ebx
.LVL1:
.LBB5:
	.loc 1 40 0
	testl	%eax, %eax
	je	.L1
	xorl	%edi, %edi
	jmp	.L6
.LVL2:
	.align 16
.L16:
.LBB3:
	.loc 1 43 0 discriminator 1
	movl	%eax, %edx
	andl	$4095, %edx
	cmpl	$4095, %edx
	je	.L4
	.loc 1 44 0
	subl	$12, %esp
	.cfi_def_cfa_offset 44
	pushl	$.LC0
	.cfi_def_cfa_offset 48
	call	terminal_writestring
.LVL3:
	.loc 1 47 0
	movl	4(%ebx), %eax
	addl	$16, %esp
	.cfi_def_cfa_offset 32
	cmpl	$65536, %eax
	jbe	.L3
.L4:
	.loc 1 48 0
	shrl	$12, %eax
	movl	$-64, %edx
	movl	%eax, 4(%ebx)
	.loc 1 49 0
	movb	$-64, 6(%esi)
.L5:
	.loc 1 55 0
	movl	4(%ebx), %eax
	movb	%al, (%esi)
	.loc 1 56 0
	movl	4(%ebx), %eax
	movb	%ah, 1(%esi)
	.loc 1 57 0
	movzwl	6(%ebx), %eax
	andl	$15, %eax
	orl	%edx, %eax
	movb	%al, 6(%esi)
	.loc 1 60 0
	movl	(%ebx), %eax
	movb	%al, 2(%esi)
	.loc 1 61 0
	movl	(%ebx), %eax
	movb	%ah, 3(%esi)
	.loc 1 62 0
	movl	(%ebx), %eax
	shrl	$16, %eax
	movb	%al, 4(%esi)
	.loc 1 63 0
	movl	(%ebx), %eax
	shrl	$24, %eax
	movb	%al, 7(%esi)
	.loc 1 65 0
	movzbl	8(%ebx), %eax
	movb	%al, 5(%esi)
	.loc 1 68 0
	movl	16(%ebx), %ebx
.LVL4:
	testl	%ebx, %ebx
	je	.L1
.LVL5:
.LBE3:
	.loc 1 40 0 discriminator 2
	addl	$1, %edi
.LVL6:
	cmpl	%edi, 8(%ebp)
	jbe	.L1
.LVL7:
.L6:
.LBB4:
	.loc 1 42 0
	movl	4(%ebp), %eax
	leal	(%eax,%edi,8), %esi
.LVL8:
	.loc 1 43 0
	movl	4(%ebx), %eax
	cmpl	$65536, %eax
	ja	.L16
.L3:
	.loc 1 51 0
	movb	$64, 6(%esi)
	movl	$64, %edx
	jmp	.L5
.LVL9:
	.align 16
.L1:
.LBE4:
.LBE5:
	.loc 1 72 0
	addl	$12, %esp
	.cfi_def_cfa_offset 20
	popl	%ebx
	.cfi_restore 3
	.cfi_def_cfa_offset 16
	popl	%esi
	.cfi_restore 6
	.cfi_def_cfa_offset 12
	popl	%edi
	.cfi_restore 7
	.cfi_def_cfa_offset 8
	popl	%ebp
	.cfi_restore 5
	.cfi_def_cfa_offset 4
	ret
	.cfi_endproc
.LFE3:
	.size	_ZN10GDTManager9encodeGDTEv, .-_ZN10GDTManager9encodeGDTEv
	.align 2
	.align 16
	.globl	_ZN10GDTManagerC2Ev
	.type	_ZN10GDTManagerC2Ev, @function
_ZN10GDTManagerC2Ev:
.LFB1:
	.loc 1 9 0
	.cfi_startproc
.LVL10:
	pushl	%ebx
	.cfi_def_cfa_offset 8
	.cfi_offset 3, -8
	subl	$104, %esp
	.cfi_def_cfa_offset 112
.LBB6:
	.loc 1 16 0
	leal	32(%esp), %ecx
.LBE6:
	.loc 1 9 0
	movl	112(%esp), %eax
.LBB7:
	.loc 1 18 0
	leal	12(%esp), %edx
	.loc 1 22 0
	leal	52(%esp), %ebx
	.loc 1 12 0
	movl	$0, 24(%esp)
	.loc 1 13 0
	movl	$0, 12(%esp)
	.loc 1 16 0
	movl	%ecx, 28(%esp)
	.loc 1 24 0
	movl	%ecx, 64(%esp)
	.loc 1 31 0
	leal	72(%esp), %ecx
	.loc 1 22 0
	movl	%ebx, 48(%esp)
	.loc 1 14 0
	movl	$0, 16(%esp)
	.loc 1 34 0
	subl	$12, %esp
	.cfi_def_cfa_offset 124
	.loc 1 15 0
	movb	$0, 32(%esp)
	.loc 1 18 0
	movl	%edx, 56(%esp)
	.loc 1 19 0
	movl	$0, 44(%esp)
	.loc 1 20 0
	movl	$-1, 48(%esp)
	.loc 1 21 0
	movb	$-102, 52(%esp)
	.loc 1 25 0
	movl	$0, 64(%esp)
	.loc 1 26 0
	movl	$-1, 68(%esp)
	.loc 1 27 0
	movb	$-110, 72(%esp)
	.loc 1 28 0
	movl	$0, 80(%esp)
	.loc 1 31 0
	movl	%ecx, 4(%eax)
	.loc 1 32 0
	movl	%edx, (%eax)
	.loc 1 34 0
	pushl	%eax
	.cfi_def_cfa_offset 128
	call	_ZN10GDTManager9encodeGDTEv
.LVL11:
.LBE7:
	.loc 1 35 0
	addl	$120, %esp
	.cfi_def_cfa_offset 8
	popl	%ebx
	.cfi_restore 3
	.cfi_def_cfa_offset 4
	ret
	.cfi_endproc
.LFE1:
	.size	_ZN10GDTManagerC2Ev, .-_ZN10GDTManagerC2Ev
	.globl	_ZN10GDTManagerC1Ev
	.set	_ZN10GDTManagerC1Ev,_ZN10GDTManagerC2Ev
	.align 2
	.align 16
	.globl	_ZN10GDTManager6setGDTEv
	.type	_ZN10GDTManager6setGDTEv, @function
_ZN10GDTManager6setGDTEv:
.LFB4:
	.loc 1 76 0
	.cfi_startproc
.LVL12:
	subl	$20, %esp
	.cfi_def_cfa_offset 24
	.loc 1 76 0
	movl	24(%esp), %eax
.LVL13:
	.loc 1 78 0
	pushl	4(%eax)
	.cfi_def_cfa_offset 28
.LVL14:
	.loc 1 77 0
	movl	8(%eax), %eax
	leal	-1(,%eax,8), %eax
	.loc 1 78 0
	pushl	%eax
	.cfi_def_cfa_offset 32
	call	setGdtASM
.LVL15:
	.loc 1 80 0
	addl	$28, %esp
	.cfi_def_cfa_offset 4
	.loc 1 79 0
	jmp	reloadSegments
.LVL16:
	.cfi_endproc
.LFE4:
	.size	_ZN10GDTManager6setGDTEv, .-_ZN10GDTManager6setGDTEv
	.globl	defChain
	.section	.bss
	.align 4
	.type	defChain, @object
	.size	defChain, 4
defChain:
	.zero	4
	.text
.Letext0:
	.file 2 "/home/tina/opt/cross/lib/gcc/i686-elf/7.1.0/include/stdint-gcc.h"
	.file 3 "/mnt/c/Users/TIna/OSDev/PlusOne/skeleton/sysroot/usr/include/kernel/GDTManager.h"
	.file 4 "/mnt/c/Users/TIna/OSDev/PlusOne/skeleton/sysroot/usr/include/kernel/tty.h"